; Function Attrs: mustprogress nounwind uwtable
define hidden void @_ZN13GCLogPrecious16vwrite_and_debugE15LogTargetHandlePKcP13__va_list_tag(i32 %0, ptr %1, ptr noundef %2, ptr noundef %3) local_unnamed_addr #0 align 2 {
  %5 = alloca %class.LogTargetHandle, align 8
  %6 = load ptr, ptr @_ZN13GCLogPrecious5_lockE, align 8
  %.not.i.i = icmp eq ptr %6, null
  br i1 %.not.i.i, label %_ZN11MutexLockerC2EP5MutexNS0_18SafepointCheckFlagE.exit, label %7

7:                                                ; preds = %4
  tail call void @_ZN5Mutex28lock_without_safepoint_checkEv(ptr noundef nonnull align 8 dereferenceable(104) %6) #4
  br label %_ZN11MutexLockerC2EP5MutexNS0_18SafepointCheckFlagE.exit

_ZN11MutexLockerC2EP5MutexNS0_18SafepointCheckFlagE.exit: ; preds = %4, %7
  call void @llvm.lifetime.start.p0(i64 16, ptr nonnull %5)
  store i32 %0, ptr %5, align 8
  %8 = getelementptr inbounds i8, ptr %5, i64 8
  store ptr %1, ptr %8, align 8
  %9 = load ptr, ptr @_ZN13GCLogPrecious5_tempE, align 8
  tail call void @_ZN12stringStream5resetEv(ptr noundef nonnull align 8 dereferenceable(129) %9) #4
  %10 = load ptr, ptr @_ZN13GCLogPrecious5_tempE, align 8
  tail call void @_ZN12outputStream6vprintEPKcP13__va_list_tag(ptr noundef nonnull align 8 dereferenceable(56) %10, ptr noundef %2, ptr noundef %3) #4
  %11 = load ptr, ptr @_ZN13GCLogPrecious6_linesE, align 8
  %12 = load ptr, ptr @_ZN13GCLogPrecious5_tempE, align 8
  %13 = getelementptr inbounds i8, ptr %12, i64 56
  %14 = load ptr, ptr %13, align 8
  tail call void (ptr, ptr, ...) @_ZN12outputStream8print_crEPKcz(ptr noundef nonnull align 8 dereferenceable(56) %11, ptr noundef nonnull @.str.4, ptr noundef %14) #4
  %15 = load ptr, ptr @_ZN13GCLogPrecious5_tempE, align 8
  %16 = getelementptr inbounds i8, ptr %15, i64 56
  %17 = load ptr, ptr %16, align 8
  call void (ptr, ptr, ...) @_ZN15LogTargetHandle5printEPKcz(ptr noundef nonnull align 8 dereferenceable(16) %5, ptr noundef nonnull @.str.5, ptr noundef %17)
  call void @llvm.lifetime.end.p0(i64 16, ptr nonnull %5)
  br i1 %.not.i.i, label %_ZN11MutexLockerD2Ev.exit, label %18

18:                                               ; preds = %_ZN11MutexLockerC2EP5MutexNS0_18SafepointCheckFlagE.exit
  call void @_ZN5Mutex6unlockEv(ptr noundef nonnull align 8 dereferenceable(104) %6) #4
  br label %_ZN11MutexLockerD2Ev.exit

_ZN11MutexLockerD2Ev.exit:                        ; preds = %_ZN11MutexLockerC2EP5MutexNS0_18SafepointCheckFlagE.exit, %18
  ret void
}